; Function Attrs: nounwind uwtable
define ptr @l_Array_foldlMUnsafe_fold___at_Lean_unresolveNameGlobalAvoidingLocals___spec__3(ptr noundef %0, ptr noundef readonly captures(none) %1, i64 noundef %2, i64 noundef %3, ptr noundef %4) local_unnamed_addr #1 {
  %.not46 = icmp eq i64 %2, %3
  br i1 %.not46, label %._crit_edge, label %.lr.ph

.lr.ph:                                           ; preds = %5
  %6 = getelementptr inbounds nuw i8, ptr %1, i64 24
  br label %7

7:                                                ; preds = %.lr.ph, %lean_dec.exit
  %.02448 = phi i64 [ %2, %.lr.ph ], [ %39, %lean_dec.exit ]
  %.02647 = phi ptr [ %4, %.lr.ph ], [ %.228, %lean_dec.exit ]
  %8 = getelementptr inbounds nuw [0 x ptr], ptr %6, i64 0, i64 %.02448
  %9 = load ptr, ptr %8, align 8, !tbaa !9
  %10 = ptrtoint ptr %9 to i64
  %11 = and i64 %10, 1
  %.not.i35 = icmp eq i64 %11, 0
  br i1 %.not.i35, label %12, label %lean_array_uget.exit

12:                                               ; preds = %7
  %.val.i.i = load i32, ptr %9, align 4, !tbaa !4
  %13 = icmp sgt i32 %.val.i.i, 0
  br i1 %13, label %14, label %16, !prof !11

14:                                               ; preds = %12
  %15 = add nuw i32 %.val.i.i, 1
  store i32 %15, ptr %9, align 4, !tbaa !4
  br label %lean_array_uget.exit

16:                                               ; preds = %12
  %.not.i.i = icmp eq i32 %.val.i.i, 0
  br i1 %.not.i.i, label %lean_array_uget.exit, label %17

17:                                               ; preds = %16
  tail call void @lean_inc_ref_cold(ptr noundef nonnull %9) #6
  br label %lean_array_uget.exit

lean_array_uget.exit:                             ; preds = %7, %14, %16, %17
  %18 = tail call ptr @l_Lean_Name_getPrefix(ptr noundef %9) #6
  %19 = tail call ptr @l_Lean_Name_getPrefix(ptr noundef %0) #6
  %20 = tail call zeroext i8 @l_Lean_Name_isPrefixOf(ptr noundef %18, ptr noundef %19) #6
  %21 = ptrtoint ptr %19 to i64
  %22 = and i64 %21, 1
  %.not43 = icmp eq i64 %22, 0
  br i1 %.not43, label %23, label %lean_dec.exit30

23:                                               ; preds = %lean_array_uget.exit
  %24 = load i32, ptr %19, align 4, !tbaa !4
  %25 = icmp sgt i32 %24, 1
  br i1 %25, label %26, label %28, !prof !11

26:                                               ; preds = %23
  %27 = add nsw i32 %24, -1
  store i32 %27, ptr %19, align 4, !tbaa !4
  br label %lean_dec.exit30

28:                                               ; preds = %23
  %.not.i = icmp eq i32 %24, 0
  br i1 %.not.i, label %lean_dec.exit30, label %29

29:                                               ; preds = %28
  tail call void @lean_dec_ref_cold(ptr noundef nonnull %19) #6
  br label %lean_dec.exit30

lean_dec.exit30:                                  ; preds = %29, %28, %26, %lean_array_uget.exit
  %30 = ptrtoint ptr %18 to i64
  %31 = and i64 %30, 1
  %.not44 = icmp eq i64 %31, 0
  br i1 %.not44, label %32, label %lean_dec.exit29

32:                                               ; preds = %lean_dec.exit30
  %33 = load i32, ptr %18, align 4, !tbaa !4
  %34 = icmp sgt i32 %33, 1
  br i1 %34, label %35, label %37, !prof !11

35:                                               ; preds = %32
  %36 = add nsw i32 %33, -1
  store i32 %36, ptr %18, align 4, !tbaa !4
  br label %lean_dec.exit29

37:                                               ; preds = %32
  %.not.i31 = icmp eq i32 %33, 0
  br i1 %.not.i31, label %lean_dec.exit29, label %38

38:                                               ; preds = %37
  tail call void @lean_dec_ref_cold(ptr noundef nonnull %18) #6
  br label %lean_dec.exit29

lean_dec.exit29:                                  ; preds = %38, %37, %35, %lean_dec.exit30
  %39 = add i64 %.02448, 1
  %40 = icmp eq i8 %20, 0
  br i1 %40, label %41, label %49

41:                                               ; preds = %lean_dec.exit29
  br i1 %.not.i35, label %42, label %lean_dec.exit

42:                                               ; preds = %41
  %43 = load i32, ptr %9, align 4, !tbaa !4
  %44 = icmp sgt i32 %43, 1
  br i1 %44, label %45, label %47, !prof !11

45:                                               ; preds = %42
  %46 = add nsw i32 %43, -1
  store i32 %46, ptr %9, align 4, !tbaa !4
  br label %lean_dec.exit

47:                                               ; preds = %42
  %.not.i33 = icmp eq i32 %43, 0
  br i1 %.not.i33, label %lean_dec.exit, label %48

48:                                               ; preds = %47
  tail call void @lean_dec_ref_cold(ptr noundef nonnull %9) #6
  br label %lean_dec.exit

49:                                               ; preds = %lean_dec.exit29
  %50 = tail call ptr @lean_array_push(ptr noundef %.02647, ptr noundef %9) #6
  br label %lean_dec.exit

lean_dec.exit:                                    ; preds = %41, %45, %47, %48, %49
  %.228 = phi ptr [ %50, %49 ], [ %.02647, %48 ], [ %.02647, %47 ], [ %.02647, %45 ], [ %.02647, %41 ]
  %.not = icmp eq i64 %39, %3
  br i1 %.not, label %._crit_edge, label %7

._crit_edge:                                      ; preds = %lean_dec.exit, %5
  %.026.lcssa = phi ptr [ %4, %5 ], [ %.228, %lean_dec.exit ]
  ret ptr %.026.lcssa
}